; ModuleID = '16/1433.c'
source_filename = "16/1433.c"
target datalayout = "e-m:e-p270:32:32-p271:32:32-p272:64:64-i64:64-f80:128-n8:16:32:64-S128"
target triple = "x86_64-pc-linux-gnu"

@.str = private unnamed_addr constant [3 x i8] c"%d\00", align 1
@.str.1 = private unnamed_addr constant [5 x i8] c"%d%d\00", align 1
@.str.2 = private unnamed_addr constant [7 x i8] c"%d%d%d\00", align 1
@.str.3 = private unnamed_addr constant [9 x i8] c"%d%d%d%d\00", align 1

; Function Attrs: noinline nounwind uwtable
define dso_local i32 @main() #0 {
  %1 = alloca i32, align 4
  %2 = alloca i32, align 4
  %3 = alloca i32, align 4
  %4 = alloca i32, align 4
  %5 = alloca i32, align 4
  %6 = alloca i32, align 4
  %7 = alloca i32, align 4
  %8 = alloca i32, align 4
  %9 = alloca i32, align 4
  %10 = alloca i32, align 4
  %11 = alloca i32, align 4
  store i32 0, i32* %1, align 4
  %12 = call i32 (i8*, ...) @__isoc99_scanf(i8* getelementptr inbounds ([3 x i8], [3 x i8]* @.str, i64 0, i64 0), i32* %2)
  %13 = load i32, i32* %2, align 4
  %14 = icmp slt i32 %13, 10
  br i1 %14, label %15, label %18

15:                                               ; preds = %0
  %16 = load i32, i32* %2, align 4
  %17 = call i32 (i8*, ...) @printf(i8* getelementptr inbounds ([3 x i8], [3 x i8]* @.str, i64 0, i64 0), i32 %16)
  br label %66

18:                                               ; preds = %0
  %19 = load i32, i32* %2, align 4
  %20 = icmp slt i32 %19, 100
  br i1 %20, label %21, label %29

21:                                               ; preds = %18
  %22 = load i32, i32* %2, align 4
  %23 = srem i32 %22, 10
  store i32 %23, i32* %3, align 4
  %24 = load i32, i32* %2, align 4
  %25 = sdiv i32 %24, 10
  store i32 %25, i32* %4, align 4
  %26 = load i32, i32* %3, align 4
  %27 = load i32, i32* %4, align 4
  %28 = call i32 (i8*, ...) @printf(i8* getelementptr inbounds ([5 x i8], [5 x i8]* @.str.1, i64 0, i64 0), i32 %26, i32 %27)
  br label %65

29:                                               ; preds = %18
  %30 = load i32, i32* %2, align 4
  %31 = icmp slt i32 %30, 1000
  br i1 %31, label %32, label %44

32:                                               ; preds = %29
  %33 = load i32, i32* %2, align 4
  %34 = srem i32 %33, 10
  store i32 %34, i32* %5, align 4
  %35 = load i32, i32* %2, align 4
  %36 = sdiv i32 %35, 100
  store i32 %36, i32* %7, align 4
  %37 = load i32, i32* %2, align 4
  %38 = sdiv i32 %37, 10
  %39 = srem i32 %38, 10
  store i32 %39, i32* %6, align 4
  %40 = load i32, i32* %5, align 4
  %41 = load i32, i32* %6, align 4
  %42 = load i32, i32* %7, align 4
  %43 = call i32 (i8*, ...) @printf(i8* getelementptr inbounds ([7 x i8], [7 x i8]* @.str.2, i64 0, i64 0), i32 %40, i32 %41, i32 %42)
  br label %64

44:                                               ; preds = %29
  %45 = load i32, i32* %2, align 4
  %46 = icmp slt i32 %45, 10000
  br i1 %46, label %47, label %63

47:                                               ; preds = %44
  %48 = load i32, i32* %2, align 4
  %49 = srem i32 %48, 10
  store i32 %49, i32* %8, align 4
  %50 = load i32, i32* %2, align 4
  %51 = srem i32 %50, 100
  %52 = sdiv i32 %51, 10
  store i32 %52, i32* %9, align 4
  %53 = load i32, i32* %2, align 4
  %54 = sdiv i32 %53, 100
  %55 = srem i32 %54, 10
  store i32 %55, i32* %10, align 4
  %56 = load i32, i32* %2, align 4
  %57 = sdiv i32 %56, 1000
  store i32 %57, i32* %11, align 4
  %58 = load i32, i32* %8, align 4
  %59 = load i32, i32* %9, align 4
  %60 = load i32, i32* %10, align 4
  %61 = load i32, i32* %11, align 4
  %62 = call i32 (i8*, ...) @printf(i8* getelementptr inbounds ([9 x i8], [9 x i8]* @.str.3, i64 0, i64 0), i32 %58, i32 %59, i32 %60, i32 %61)
  br label %63

63:                                               ; preds = %47, %44
  br label %64

64:                                               ; preds = %63, %32
  br label %65

65:                                               ; preds = %64, %21
  br label %66

66:                                               ; preds = %65, %15
  ret i32 0
}

declare dso_local i32 @__isoc99_scanf(i8*, ...) #1

declare dso_local i32 @printf(i8*, ...) #1


!llvm.module.flags = !{!0}
!llvm.ident = !{!1}

!0 = !{i32 1, !"wchar_size", i32 4}
!1 = !{!"clang version 10.0.0-4ubuntu1 "}
